; Function Attrs: mustprogress nounwind uwtable
define internal noundef i32 @_ZN5clang6format12_GLOBAL__N_120NoLineBreakFormatter10formatLineERKNS0_13AnnotatedLineEjjb(ptr noundef nonnull align 8 dereferenceable(40) %0, ptr noundef nonnull align 8 dereferenceable(80) %1, i32 noundef %2, i32 noundef %3, i1 noundef zeroext %4) unnamed_addr #0 align 2 {
  %6 = alloca i32, align 4
  %7 = alloca %"struct.clang::format::LineState", align 8
  store i32 0, ptr %6, align 4
  %8 = getelementptr inbounds nuw i8, ptr %0, i64 8
  %9 = load ptr, ptr %8, align 8
  call void @_ZN5clang6format20ContinuationIndenter15getInitialStateEjjPKNS0_13AnnotatedLineEb(ptr dead_on_unwind nonnull writable sret(%"struct.clang::format::LineState") align 8 %7, ptr noundef nonnull align 8 dereferenceable(1032) %9, i32 noundef %2, i32 noundef %3, ptr noundef nonnull %1, i1 noundef zeroext %4) #15
  %10 = getelementptr inbounds nuw i8, ptr %7, i64 8
  %11 = load ptr, ptr %10, align 8
  %.not6 = icmp eq ptr %11, null
  br i1 %.not6, label %._crit_edge, label %.lr.ph

.lr.ph:                                           ; preds = %5, %.lr.ph
  %12 = call fastcc noundef zeroext i1 @_ZN5clang6format12_GLOBAL__N_113LineFormatter14formatChildrenERNS0_9LineStateEbbRj(ptr noundef nonnull align 8 dereferenceable(40) %0, ptr noundef nonnull align 8 dereferenceable(128) %7, i1 noundef zeroext false, i1 noundef zeroext %4, ptr noundef nonnull align 4 dereferenceable(4) %6)
  %13 = load ptr, ptr %8, align 8
  %14 = load ptr, ptr %10, align 8
  %15 = getelementptr inbounds nuw i8, ptr %14, i64 64
  %16 = load i8, ptr %15, align 8
  %17 = and i8 %16, 8
  %18 = icmp ne i8 %17, 0
  %19 = call noundef i32 @_ZN5clang6format20ContinuationIndenter15addTokenToStateERNS0_9LineStateEbbj(ptr noundef nonnull align 8 dereferenceable(1032) %13, ptr noundef nonnull align 8 dereferenceable(128) %7, i1 noundef zeroext %18, i1 noundef zeroext %4, i32 noundef 0) #15
  %20 = load ptr, ptr %10, align 8
  %.not = icmp eq ptr %20, null
  br i1 %.not, label %._crit_edge.loopexit, label %.lr.ph, !llvm.loop !7

._crit_edge.loopexit:                             ; preds = %.lr.ph
  %.pre = load i32, ptr %6, align 4
  br label %._crit_edge

._crit_edge:                                      ; preds = %._crit_edge.loopexit, %5
  %21 = phi i32 [ %.pre, %._crit_edge.loopexit ], [ 0, %5 ]
  %22 = getelementptr inbounds nuw i8, ptr %7, i64 40
  %23 = call noundef i64 @_ZNK4llvm15SmallVectorBaseIjE4sizeEv(ptr noundef nonnull align 8 dereferenceable(72) %22) #15
  %24 = load ptr, ptr %22, align 8
  %25 = getelementptr inbounds nuw i8, ptr %7, i64 56
  %26 = icmp eq ptr %24, %25
  br i1 %26, label %_ZN5clang6format9LineStateD2Ev.exit, label %27

27:                                               ; preds = %._crit_edge
  call void @free(ptr noundef %24) #15
  br label %_ZN5clang6format9LineStateD2Ev.exit

_ZN5clang6format9LineStateD2Ev.exit:              ; preds = %._crit_edge, %27
  ret i32 %21
}